; Function Attrs: mustprogress uwtable
define internal void @"_ZZ25test_submodule_exceptionsRN8pybind117module_EEN3$_58__invokeENSt15__exception_ptr13exception_ptrE"(ptr nocapture noundef readonly %0) #1 align 2 personality ptr @__gxx_personality_v0 {
  %2 = alloca %"class.std::__exception_ptr::exception_ptr", align 8
  %.val = load ptr, ptr %0, align 8
  call void @llvm.lifetime.start.p0(i64 8, ptr nonnull %2)
  %.not.i = icmp eq ptr %.val, null
  br i1 %.not.i, label %"_ZZ25test_submodule_exceptionsRN8pybind117module_EENK3$_5clENSt15__exception_ptr13exception_ptrE.exit", label %_ZNSt15__exception_ptr13exception_ptrC2ERKS0_.exit.i

_ZNSt15__exception_ptr13exception_ptrC2ERKS0_.exit.i: ; preds = %1
  store ptr %.val, ptr %2, align 8
  call void @_ZNSt15__exception_ptr13exception_ptr9_M_addrefEv(ptr noundef nonnull align 8 dereferenceable(8) %2) #25
  invoke void @_ZSt17rethrow_exceptionNSt15__exception_ptr13exception_ptrE(ptr noundef nonnull %2) #29
          to label %3 unwind label %4

3:                                                ; preds = %_ZNSt15__exception_ptr13exception_ptrC2ERKS0_.exit.i
  unreachable

4:                                                ; preds = %_ZNSt15__exception_ptr13exception_ptrC2ERKS0_.exit.i
  %5 = landingpad { ptr, i32 }
          cleanup
          catch ptr @_ZTI12MyException4
  %6 = extractvalue { ptr, i32 } %5, 1
  %7 = load ptr, ptr %2, align 8
  %.not.i8.i = icmp eq ptr %7, null
  br i1 %.not.i8.i, label %_ZNSt15__exception_ptr13exception_ptrD2Ev.exit.i, label %8

8:                                                ; preds = %4
  call void @_ZNSt15__exception_ptr13exception_ptr10_M_releaseEv(ptr noundef nonnull align 8 dereferenceable(8) %2) #25
  br label %_ZNSt15__exception_ptr13exception_ptrD2Ev.exit.i

_ZNSt15__exception_ptr13exception_ptrD2Ev.exit.i: ; preds = %8, %4
  %9 = call i32 @llvm.eh.typeid.for(ptr nonnull @_ZTI12MyException4) #25
  %10 = icmp eq i32 %6, %9
  br i1 %10, label %11, label %25

11:                                               ; preds = %_ZNSt15__exception_ptr13exception_ptrD2Ev.exit.i
  %12 = extractvalue { ptr, i32 } %5, 0
  %13 = call ptr @__cxa_begin_catch(ptr %12) #25
  %14 = call ptr @__cxa_allocate_exception(i64 40) #25
  %15 = load ptr, ptr %13, align 8
  %16 = getelementptr inbounds i8, ptr %15, i64 16
  %17 = load ptr, ptr %16, align 8
  %18 = call noundef ptr %17(ptr noundef nonnull align 8 dereferenceable(40) %13) #25
  invoke void @_ZN11MyExceptionC2EPKc(ptr noundef nonnull align 8 dereferenceable(40) %14, ptr noundef %18)
          to label %19 unwind label %20

19:                                               ; preds = %11
  invoke void @__cxa_throw(ptr nonnull %14, ptr nonnull @_ZTI11MyException, ptr nonnull @_ZN11MyExceptionD2Ev) #29
          to label %29 unwind label %22

20:                                               ; preds = %11
  %21 = landingpad { ptr, i32 }
          cleanup
  call void @__cxa_free_exception(ptr %14) #25
  br label %24

22:                                               ; preds = %19
  %23 = landingpad { ptr, i32 }
          cleanup
  br label %24

24:                                               ; preds = %22, %20
  %.pn.i = phi { ptr, i32 } [ %23, %22 ], [ %21, %20 ]
  invoke void @__cxa_end_catch()
          to label %25 unwind label %26

25:                                               ; preds = %24, %_ZNSt15__exception_ptr13exception_ptrD2Ev.exit.i
  %.merged.i = phi { ptr, i32 } [ %.pn.i, %24 ], [ %5, %_ZNSt15__exception_ptr13exception_ptrD2Ev.exit.i ]
  resume { ptr, i32 } %.merged.i

26:                                               ; preds = %24
  %27 = landingpad { ptr, i32 }
          catch ptr null
  %28 = extractvalue { ptr, i32 } %27, 0
  call void @__clang_call_terminate(ptr %28) #26
  unreachable

29:                                               ; preds = %19
  unreachable

"_ZZ25test_submodule_exceptionsRN8pybind117module_EENK3$_5clENSt15__exception_ptr13exception_ptrE.exit": ; preds = %1
  call void @llvm.lifetime.end.p0(i64 8, ptr nonnull %2)
  ret void
}